target datalayout = "e-m:e-p270:32:32-p271:32:32-p272:64:64-i64:64-i128:128-f80:128-n8:16:32:64-S128"
target triple = "x86_64-unknown-linux-gnu"

%"class.absl::lts_20230802::Status" = type { i64 }
%struct.grpc_closure = type { %union.anon, ptr, ptr, %union.anon.0 }
%union.anon = type { ptr }
%union.anon.0 = type { i64 }
%"struct.grpc_core::BatchBuilder::Batch" = type <{ %struct.grpc_transport_stream_op_batch, ptr, ptr, ptr, ptr, %"class.grpc_core::RefCountedPtr", ptr, i8, [7 x i8] }>
%struct.grpc_transport_stream_op_batch = type { ptr, ptr, i8, %struct.grpc_handler_private_op_data }
%struct.grpc_handler_private_op_data = type { ptr, %struct.grpc_closure }
%"class.grpc_core::RefCountedPtr" = type { ptr }
%struct.grpc_transport_stream_op_batch_payload = type { %struct.anon, %struct.anon.100, %struct.anon.101, %struct.anon.102, %struct.anon.103, %struct.anon.104, %struct.anon.105, ptr }
%struct.anon = type { ptr }
%struct.anon.100 = type { ptr, ptr }
%struct.anon.101 = type <{ ptr, i32, i8, [3 x i8] }>
%struct.anon.102 = type { ptr, ptr, ptr }
%struct.anon.103 = type { ptr, ptr, ptr, ptr }
%struct.anon.104 = type { ptr, ptr, ptr }
%struct.anon.105 = type <{ %"class.absl::lts_20230802::Status", i8, [7 x i8] }>

@.str.15 = private unnamed_addr constant [118 x i8] c"generated/home/dtcxzyw/WorkSpace/Projects/compilers/llvm-opt-benchmark/bench/grpc/grpc/src/core/lib/promise/context.h\00", align 1
@.str.16 = private unnamed_addr constant [13 x i8] c"p != nullptr\00", align 1
@_ZN9grpc_core14promise_detail7ContextINS_5ArenaEE8current_E = linkonce_odr thread_local global ptr null, comdat, align 8
@_ZN9grpc_core12BatchBuilder5BatchC1EP38grpc_transport_stream_op_batch_payloadP20grpc_stream_refcount = unnamed_addr alias void (ptr, ptr, ptr), ptr @_ZN9grpc_core12BatchBuilder5BatchC2EP38grpc_transport_stream_op_batch_payloadP20grpc_stream_refcount

; Function Attrs: mustprogress nounwind uwtable
define linkonce_odr void @_ZN4absl12lts_202308026StatusC2Ev(ptr noundef nonnull align 8 dereferenceable(8) %this) unnamed_addr #4 comdat align 2 {
entry:
  %this.addr = alloca ptr, align 8
  store ptr %this, ptr %this.addr, align 8
  %this1 = load ptr, ptr %this.addr, align 8
  %rep_ = getelementptr inbounds %"class.absl::lts_20230802::Status", ptr %this1, i32 0, i32 0
  %call = call noundef i64 @_ZN4absl12lts_202308026Status16CodeToInlinedRepENS0_10StatusCodeE(i32 noundef 0)
  store i64 %call, ptr %rep_, align 8
  ret void
}

; Function Attrs: mustprogress nounwind uwtable
define linkonce_odr noundef zeroext i1 @_ZN4absl12lts_202308026Status9IsInlinedEm(i64 noundef %rep) #4 comdat align 2 {
entry:
  %rep.addr = alloca i64, align 8
  store i64 %rep, ptr %rep.addr, align 8
  %0 = load i64, ptr %rep.addr, align 8
  %and = and i64 %0, 1
  %cmp = icmp eq i64 %and, 0
  ret i1 %cmp
}

; Function Attrs: mustprogress nounwind uwtable
define linkonce_odr noundef i64 @_ZN4absl12lts_202308026Status16CodeToInlinedRepENS0_10StatusCodeE(i32 noundef %code) #4 comdat align 2 {
entry:
  %code.addr = alloca i32, align 4
  store i32 %code, ptr %code.addr, align 4
  %0 = load i32, ptr %code.addr, align 4
  %conv = sext i32 %0 to i64
  %shl = shl i64 %conv, 2
  ret i64 %shl
}

; Function Attrs: mustprogress uwtable
define linkonce_odr void @_ZN38grpc_transport_stream_op_batch_payloadUt5_C2Ev(ptr noundef nonnull align 8 dereferenceable(9) %this) unnamed_addr #5 comdat align 2 {
entry:
  %this.addr = alloca ptr, align 8
  store ptr %this, ptr %this.addr, align 8
  %this1 = load ptr, ptr %this.addr, align 8
  %cancel_error = getelementptr inbounds %struct.anon.105, ptr %this1, i32 0, i32 0
  call void @_ZN4absl12lts_202308026StatusC2Ev(ptr noundef nonnull align 8 dereferenceable(8) %cancel_error)
  %tarpit = getelementptr inbounds %struct.anon.105, ptr %this1, i32 0, i32 1
  store i8 0, ptr %tarpit, align 8
  ret void
}

; Function Attrs: mustprogress nounwind uwtable
define linkonce_odr void @_ZN38grpc_transport_stream_op_batch_payloadUt4_C2Ev(ptr noundef nonnull align 8 dereferenceable(24) %this) unnamed_addr #4 comdat align 2 {
entry:
  %this.addr = alloca ptr, align 8
  store ptr %this, ptr %this.addr, align 8
  %this1 = load ptr, ptr %this.addr, align 8
  %recv_trailing_metadata = getelementptr inbounds %struct.anon.104, ptr %this1, i32 0, i32 0
  store ptr null, ptr %recv_trailing_metadata, align 8
  %collect_stats = getelementptr inbounds %struct.anon.104, ptr %this1, i32 0, i32 1
  store ptr null, ptr %collect_stats, align 8
  %recv_trailing_metadata_ready = getelementptr inbounds %struct.anon.104, ptr %this1, i32 0, i32 2
  store ptr null, ptr %recv_trailing_metadata_ready, align 8
  ret void
}

; Function Attrs: mustprogress nounwind uwtable
define linkonce_odr void @_ZN38grpc_transport_stream_op_batch_payloadUt3_C2Ev(ptr noundef nonnull align 8 dereferenceable(32) %this) unnamed_addr #4 comdat align 2 {
entry:
  %this.addr = alloca ptr, align 8
  store ptr %this, ptr %this.addr, align 8
  %this1 = load ptr, ptr %this.addr, align 8
  %recv_message = getelementptr inbounds %struct.anon.103, ptr %this1, i32 0, i32 0
  store ptr null, ptr %recv_message, align 8
  %flags = getelementptr inbounds %struct.anon.103, ptr %this1, i32 0, i32 1
  store ptr null, ptr %flags, align 8
  %call_failed_before_recv_message = getelementptr inbounds %struct.anon.103, ptr %this1, i32 0, i32 2
  store ptr null, ptr %call_failed_before_recv_message, align 8
  %recv_message_ready = getelementptr inbounds %struct.anon.103, ptr %this1, i32 0, i32 3
  store ptr null, ptr %recv_message_ready, align 8
  ret void
}

; Function Attrs: mustprogress nounwind uwtable
define linkonce_odr void @_ZN38grpc_transport_stream_op_batch_payloadUt2_C2Ev(ptr noundef nonnull align 8 dereferenceable(24) %this) unnamed_addr #4 comdat align 2 {
entry:
  %this.addr = alloca ptr, align 8
  store ptr %this, ptr %this.addr, align 8
  %this1 = load ptr, ptr %this.addr, align 8
  %recv_initial_metadata = getelementptr inbounds %struct.anon.102, ptr %this1, i32 0, i32 0
  store ptr null, ptr %recv_initial_metadata, align 8
  %recv_initial_metadata_ready = getelementptr inbounds %struct.anon.102, ptr %this1, i32 0, i32 1
  store ptr null, ptr %recv_initial_metadata_ready, align 8
  %trailing_metadata_available = getelementptr inbounds %struct.anon.102, ptr %this1, i32 0, i32 2
  store ptr null, ptr %trailing_metadata_available, align 8
  ret void
}

; Function Attrs: mustprogress nounwind uwtable
define linkonce_odr void @_ZN38grpc_transport_stream_op_batch_payloadUt1_C2Ev(ptr noundef nonnull align 8 dereferenceable(13) %this) unnamed_addr #4 comdat align 2 {
entry:
  %this.addr = alloca ptr, align 8
  store ptr %this, ptr %this.addr, align 8
  %this1 = load ptr, ptr %this.addr, align 8
  %flags = getelementptr inbounds %struct.anon.101, ptr %this1, i32 0, i32 1
  store i32 0, ptr %flags, align 8
  %stream_write_closed = getelementptr inbounds %struct.anon.101, ptr %this1, i32 0, i32 2
  store i8 0, ptr %stream_write_closed, align 4
  ret void
}

; Function Attrs: mustprogress nounwind uwtable
define linkonce_odr void @_ZN38grpc_transport_stream_op_batch_payloadUt0_C2Ev(ptr noundef nonnull align 8 dereferenceable(16) %this) unnamed_addr #4 comdat align 2 {
entry:
  %this.addr = alloca ptr, align 8
  store ptr %this, ptr %this.addr, align 8
  %this1 = load ptr, ptr %this.addr, align 8
  %send_trailing_metadata = getelementptr inbounds %struct.anon.100, ptr %this1, i32 0, i32 0
  store ptr null, ptr %send_trailing_metadata, align 8
  %sent = getelementptr inbounds %struct.anon.100, ptr %this1, i32 0, i32 1
  store ptr null, ptr %sent, align 8
  ret void
}

; Function Attrs: mustprogress nounwind uwtable
define linkonce_odr void @_ZN38grpc_transport_stream_op_batch_payloadUt_C2Ev(ptr noundef nonnull align 8 dereferenceable(8) %this) unnamed_addr #4 comdat align 2 {
entry:
  %this.addr = alloca ptr, align 8
  store ptr %this, ptr %this.addr, align 8
  %this1 = load ptr, ptr %this.addr, align 8
  %send_initial_metadata = getelementptr inbounds %struct.anon, ptr %this1, i32 0, i32 0
  store ptr null, ptr %send_initial_metadata, align 8
  ret void
}

; Function Attrs: mustprogress uwtable
define linkonce_odr void @_ZN4absl12lts_202308026Status5UnrefEm(i64 noundef %rep) #5 comdat align 2 {
entry:
  %rep.addr = alloca i64, align 8
  store i64 %rep, ptr %rep.addr, align 8
  %0 = load i64, ptr %rep.addr, align 8
  %call = call noundef zeroext i1 @_ZN4absl12lts_202308026Status9IsInlinedEm(i64 noundef %0)
  br i1 %call, label %if.end, label %if.then

if.then:                                          ; preds = %entry
  %1 = load i64, ptr %rep.addr, align 8
  call void @_ZN4absl12lts_202308026Status15UnrefNonInlinedEm(i64 noundef %1)
  br label %if.end

if.end:                                           ; preds = %if.then, %entry
  ret void
}

; Function Attrs: mustprogress uwtable
define linkonce_odr noundef i64 @_ZN4absl12lts_202308026Status12MovedFromRepEv() #5 comdat align 2 {
entry:
  %call = call noundef i64 @_ZN4absl12lts_202308026Status16CodeToInlinedRepENS0_10StatusCodeE(i32 noundef 13)
  %or = or i64 %call, 2
  ret i64 %or
}

; Function Attrs: mustprogress uwtable
define linkonce_odr void @_ZN38grpc_transport_stream_op_batch_payloadC2EP25grpc_call_context_element(ptr noundef nonnull align 8 dereferenceable(144) %this, ptr noundef %context) unnamed_addr #5 comdat align 2 {
entry:
  %this.addr = alloca ptr, align 8
  %context.addr = alloca ptr, align 8
  store ptr %this, ptr %this.addr, align 8
  store ptr %context, ptr %context.addr, align 8
  %this1 = load ptr, ptr %this.addr, align 8
  %send_initial_metadata = getelementptr inbounds %struct.grpc_transport_stream_op_batch_payload, ptr %this1, i32 0, i32 0
  call void @_ZN38grpc_transport_stream_op_batch_payloadUt_C2Ev(ptr noundef nonnull align 8 dereferenceable(8) %send_initial_metadata) #3
  %send_trailing_metadata = getelementptr inbounds %struct.grpc_transport_stream_op_batch_payload, ptr %this1, i32 0, i32 1
  call void @_ZN38grpc_transport_stream_op_batch_payloadUt0_C2Ev(ptr noundef nonnull align 8 dereferenceable(16) %send_trailing_metadata) #3
  %send_message = getelementptr inbounds %struct.grpc_transport_stream_op_batch_payload, ptr %this1, i32 0, i32 2
  call void @_ZN38grpc_transport_stream_op_batch_payloadUt1_C2Ev(ptr noundef nonnull align 8 dereferenceable(13) %send_message) #3
  %recv_initial_metadata = getelementptr inbounds %struct.grpc_transport_stream_op_batch_payload, ptr %this1, i32 0, i32 3
  call void @_ZN38grpc_transport_stream_op_batch_payloadUt2_C2Ev(ptr noundef nonnull align 8 dereferenceable(24) %recv_initial_metadata) #3
  %recv_message = getelementptr inbounds %struct.grpc_transport_stream_op_batch_payload, ptr %this1, i32 0, i32 4
  call void @_ZN38grpc_transport_stream_op_batch_payloadUt3_C2Ev(ptr noundef nonnull align 8 dereferenceable(32) %recv_message) #3
  %recv_trailing_metadata = getelementptr inbounds %struct.grpc_transport_stream_op_batch_payload, ptr %this1, i32 0, i32 5
  call void @_ZN38grpc_transport_stream_op_batch_payloadUt4_C2Ev(ptr noundef nonnull align 8 dereferenceable(24) %recv_trailing_metadata) #3
  %cancel_stream = getelementptr inbounds %struct.grpc_transport_stream_op_batch_payload, ptr %this1, i32 0, i32 6
  call void @_ZN38grpc_transport_stream_op_batch_payloadUt5_C2Ev(ptr noundef nonnull align 8 dereferenceable(9) %cancel_stream)
  %context2 = getelementptr inbounds %struct.grpc_transport_stream_op_batch_payload, ptr %this1, i32 0, i32 7
  %0 = load ptr, ptr %context.addr, align 8
  store ptr %0, ptr %context2, align 8
  ret void
}

; Function Attrs: mustprogress nounwind uwtable
define linkonce_odr noundef ptr @_ZN9grpc_core14promise_detail7ContextINS_5ArenaEE3getEv() #4 comdat align 2 {
entry:
  %0 = call align 8 ptr @llvm.threadlocal.address.p0(ptr align 8 @_ZN9grpc_core14promise_detail7ContextINS_5ArenaEE8current_E)
  %1 = load ptr, ptr %0, align 8
  ret ptr %1
}

; Function Attrs: mustprogress uwtable
define linkonce_odr noundef nonnull align 8 dereferenceable(8) ptr @_ZN4absl12lts_202308026StatusaSEOS1_(ptr noundef nonnull align 8 dereferenceable(8) %this, ptr noundef nonnull align 8 dereferenceable(8) %x) #5 comdat align 2 {
entry:
  %this.addr = alloca ptr, align 8
  %x.addr = alloca ptr, align 8
  %old_rep = alloca i64, align 8
  store ptr %this, ptr %this.addr, align 8
  store ptr %x, ptr %x.addr, align 8
  %this1 = load ptr, ptr %this.addr, align 8
  %rep_ = getelementptr inbounds %"class.absl::lts_20230802::Status", ptr %this1, i32 0, i32 0
  %0 = load i64, ptr %rep_, align 8
  store i64 %0, ptr %old_rep, align 8
  %1 = load ptr, ptr %x.addr, align 8
  %rep_2 = getelementptr inbounds %"class.absl::lts_20230802::Status", ptr %1, i32 0, i32 0
  %2 = load i64, ptr %rep_2, align 8
  %3 = load i64, ptr %old_rep, align 8
  %cmp = icmp ne i64 %2, %3
  br i1 %cmp, label %if.then, label %if.end

if.then:                                          ; preds = %entry
  %4 = load ptr, ptr %x.addr, align 8
  %rep_3 = getelementptr inbounds %"class.absl::lts_20230802::Status", ptr %4, i32 0, i32 0
  %5 = load i64, ptr %rep_3, align 8
  %rep_4 = getelementptr inbounds %"class.absl::lts_20230802::Status", ptr %this1, i32 0, i32 0
  store i64 %5, ptr %rep_4, align 8
  %call = call noundef i64 @_ZN4absl12lts_202308026Status12MovedFromRepEv()
  %6 = load ptr, ptr %x.addr, align 8
  %rep_5 = getelementptr inbounds %"class.absl::lts_20230802::Status", ptr %6, i32 0, i32 0
  store i64 %call, ptr %rep_5, align 8
  %7 = load i64, ptr %old_rep, align 8
  call void @_ZN4absl12lts_202308026Status5UnrefEm(i64 noundef %7)
  br label %if.end

if.end:                                           ; preds = %if.then, %entry
  ret ptr %this1
}

; Function Attrs: mustprogress uwtable
define linkonce_odr noundef ptr @_ZN9grpc_core5Arena9NewPooledINS_12BatchBuilder5BatchEJRP38grpc_transport_stream_op_batch_payloadRP20grpc_stream_refcountEEEPT_DpOT0_(ptr noundef nonnull align 8 dereferenceable(48) %this, ptr noundef nonnull align 8 dereferenceable(8) %args, ptr noundef nonnull align 8 dereferenceable(8) %args1) #5 comdat align 2 personality ptr @__gxx_personality_v0 {
entry:
  %this.addr = alloca ptr, align 8
  %args.addr = alloca ptr, align 8
  %args.addr2 = alloca ptr, align 8
  %exn.slot = alloca ptr, align 8
  %ehselector.slot = alloca i32, align 4
  store ptr %this, ptr %this.addr, align 8
  store ptr %args, ptr %args.addr, align 8
  store ptr %args1, ptr %args.addr2, align 8
  %call = call noalias noundef nonnull ptr @_Znwm(i64 noundef 120) #17
  %0 = load ptr, ptr %args.addr, align 8
  %1 = load ptr, ptr %0, align 8
  %2 = load ptr, ptr %args.addr2, align 8
  %3 = load ptr, ptr %2, align 8
  invoke void @_ZN9grpc_core12BatchBuilder5BatchC1EP38grpc_transport_stream_op_batch_payloadP20grpc_stream_refcount(ptr noundef nonnull align 8 dereferenceable(120) %call, ptr noundef %1, ptr noundef %3)
          to label %invoke.cont unwind label %lpad

invoke.cont:                                      ; preds = %entry
  ret ptr %call

lpad:                                             ; preds = %entry
  %4 = landingpad { ptr, i32 }
          cleanup
  %5 = extractvalue { ptr, i32 } %4, 0
  store ptr %5, ptr %exn.slot, align 8
  %6 = extractvalue { ptr, i32 } %4, 1
  store i32 %6, ptr %ehselector.slot, align 4
  call void @_ZdlPv(ptr noundef %call) #16
  br label %eh.resume

eh.resume:                                        ; preds = %lpad
  %exn = load ptr, ptr %exn.slot, align 8
  %sel = load i32, ptr %ehselector.slot, align 4
  %lpad.val = insertvalue { ptr, i32 } poison, ptr %exn, 0
  %lpad.val4 = insertvalue { ptr, i32 } %lpad.val, i32 %sel, 1
  resume { ptr, i32 } %lpad.val4
}

; Function Attrs: mustprogress uwtable
define linkonce_odr noundef ptr @_ZN9grpc_core5Arena9NewPooledI38grpc_transport_stream_op_batch_payloadJDnEEEPT_DpOT0_(ptr noundef nonnull align 8 dereferenceable(48) %this, ptr noundef nonnull align 8 dereferenceable(8) %args) #5 comdat align 2 personality ptr @__gxx_personality_v0 {
entry:
  %this.addr = alloca ptr, align 8
  %args.addr = alloca ptr, align 8
  %exn.slot = alloca ptr, align 8
  %ehselector.slot = alloca i32, align 4
  store ptr %this, ptr %this.addr, align 8
  store ptr %args, ptr %args.addr, align 8
  %call = call noalias noundef nonnull ptr @_Znwm(i64 noundef 144) #17
  invoke void @_ZN38grpc_transport_stream_op_batch_payloadC2EP25grpc_call_context_element(ptr noundef nonnull align 8 dereferenceable(144) %call, ptr noundef null)
          to label %invoke.cont unwind label %lpad

invoke.cont:                                      ; preds = %entry
  ret ptr %call

lpad:                                             ; preds = %entry
  %0 = landingpad { ptr, i32 }
          cleanup
  %1 = extractvalue { ptr, i32 } %0, 0
  store ptr %1, ptr %exn.slot, align 8
  %2 = extractvalue { ptr, i32 } %0, 1
  store i32 %2, ptr %ehselector.slot, align 4
  call void @_ZdlPv(ptr noundef %call) #16
  br label %eh.resume

eh.resume:                                        ; preds = %lpad
  %exn = load ptr, ptr %exn.slot, align 8
  %sel = load i32, ptr %ehselector.slot, align 4
  %lpad.val = insertvalue { ptr, i32 } poison, ptr %exn, 0
  %lpad.val2 = insertvalue { ptr, i32 } %lpad.val, i32 %sel, 1
  resume { ptr, i32 } %lpad.val2
}

; Function Attrs: mustprogress uwtable
define linkonce_odr noundef ptr @_ZN9grpc_core10GetContextINS_5ArenaEEEPT_v() #5 comdat {
entry:
  %p = alloca ptr, align 8
  %call = call noundef ptr @_ZN9grpc_core14promise_detail7ContextINS_5ArenaEE3getEv()
  store ptr %call, ptr %p, align 8
  br label %do.body

do.body:                                          ; preds = %entry
  %0 = load ptr, ptr %p, align 8
  %cmp = icmp ne ptr %0, null
  %lnot = xor i1 %cmp, true
  br i1 %lnot, label %if.then, label %if.end

if.then:                                          ; preds = %do.body
  call void @gpr_assertion_failed(ptr noundef @.str.15, i32 noundef 80, ptr noundef @.str.16) #15
  unreachable

if.end:                                           ; preds = %do.body
  br label %do.end

do.end:                                           ; preds = %if.end
  %1 = load ptr, ptr %p, align 8
  ret ptr %1
}

; Function Attrs: mustprogress uwtable
define noundef ptr @_ZN9grpc_core12BatchBuilder10MakeCancelEP20grpc_stream_refcountN4absl12lts_202308026StatusE(ptr noundef nonnull align 8 dereferenceable(48) %this, ptr noundef %stream_refcount, ptr noundef %status) #5 align 2 {
entry:
  %this.addr = alloca ptr, align 8
  %stream_refcount.addr = alloca ptr, align 8
  %status.indirect_addr = alloca ptr, align 8
  %arena = alloca ptr, align 8
  %payload = alloca ptr, align 8
  %ref.tmp = alloca ptr, align 8
  %batch = alloca ptr, align 8
  store ptr %this, ptr %this.addr, align 8
  store ptr %stream_refcount, ptr %stream_refcount.addr, align 8
  store ptr %status, ptr %status.indirect_addr, align 8
  %call = call noundef ptr @_ZN9grpc_core10GetContextINS_5ArenaEEEPT_v()
  store ptr %call, ptr %arena, align 8
  %0 = load ptr, ptr %arena, align 8
  store ptr null, ptr %ref.tmp, align 8
  %call2 = call noundef ptr @_ZN9grpc_core5Arena9NewPooledI38grpc_transport_stream_op_batch_payloadJDnEEEPT_DpOT0_(ptr noundef nonnull align 8 dereferenceable(48) %0, ptr noundef nonnull align 8 dereferenceable(8) %ref.tmp)
  store ptr %call2, ptr %payload, align 8
  %1 = load ptr, ptr %arena, align 8
  %call3 = call noundef ptr @_ZN9grpc_core5Arena9NewPooledINS_12BatchBuilder5BatchEJRP38grpc_transport_stream_op_batch_payloadRP20grpc_stream_refcountEEEPT_DpOT0_(ptr noundef nonnull align 8 dereferenceable(48) %1, ptr noundef nonnull align 8 dereferenceable(8) %payload, ptr noundef nonnull align 8 dereferenceable(8) %stream_refcount.addr)
  store ptr %call3, ptr %batch, align 8
  %2 = load ptr, ptr %batch, align 8
  %batch4 = getelementptr inbounds %"struct.grpc_core::BatchBuilder::Batch", ptr %2, i32 0, i32 0
  %cancel_stream = getelementptr inbounds %struct.grpc_transport_stream_op_batch, ptr %batch4, i32 0, i32 2
  %bf.load = load i8, ptr %cancel_stream, align 8
  %bf.clear = and i8 %bf.load, -65
  %bf.set = or i8 %bf.clear, 64
  store i8 %bf.set, ptr %cancel_stream, align 8
  %3 = load ptr, ptr %payload, align 8
  %cancel_stream5 = getelementptr inbounds %struct.grpc_transport_stream_op_batch_payload, ptr %3, i32 0, i32 6
  %cancel_error = getelementptr inbounds %struct.anon.105, ptr %cancel_stream5, i32 0, i32 0
  %call6 = call noundef nonnull align 8 dereferenceable(8) ptr @_ZN4absl12lts_202308026StatusaSEOS1_(ptr noundef nonnull align 8 dereferenceable(8) %cancel_error, ptr noundef nonnull align 8 dereferenceable(8) %status)
  %4 = load ptr, ptr %batch, align 8
  ret ptr %4
}