; Function Attrs: mustprogress uwtable
define noundef ptr @_ZN9grpc_core12BatchBuilder10MakeCancelEP20grpc_stream_refcountN4absl12lts_202308026StatusE(ptr nocapture nonnull readnone align 8 %this, ptr noundef %stream_refcount, ptr nocapture noundef %status) local_unnamed_addr #4 align 2 personality ptr @__gxx_personality_v0 {
entry:
  %0 = tail call align 8 ptr @llvm.threadlocal.address.p0(ptr align 8 @_ZN9grpc_core14promise_detail7ContextINS_5ArenaEE8current_E)
  %1 = load ptr, ptr %0, align 8
  %cmp.not.i = icmp eq ptr %1, null
  br i1 %cmp.not.i, label %if.then.i, label %_ZN9grpc_core10GetContextINS_5ArenaEEEPT_v.exit

if.then.i:                                        ; preds = %entry
  tail call void @gpr_assertion_failed(ptr noundef nonnull @.str.15, i32 noundef 80, ptr noundef nonnull @.str.16) #24
  unreachable

_ZN9grpc_core10GetContextINS_5ArenaEEEPT_v.exit:  ; preds = %entry
  %call.i = tail call noalias noundef nonnull dereferenceable(144) ptr @_Znwm(i64 noundef 144) #21
  %flags.i.i.i = getelementptr inbounds i8, ptr %call.i, i64 32
  store i32 0, ptr %flags.i.i.i, align 8
  %stream_write_closed.i.i.i = getelementptr inbounds i8, ptr %call.i, i64 36
  store i8 0, ptr %stream_write_closed.i.i.i, align 4
  %recv_initial_metadata.i.i = getelementptr inbounds i8, ptr %call.i, i64 40
  %context2.i.i = getelementptr inbounds i8, ptr %call.i, i64 136
  tail call void @llvm.memset.p0.i64(ptr noundef nonnull align 8 dereferenceable(24) %call.i, i8 0, i64 24, i1 false)
  tail call void @llvm.memset.p0.i64(ptr noundef nonnull align 8 dereferenceable(89) %recv_initial_metadata.i.i, i8 0, i64 89, i1 false)
  store ptr null, ptr %context2.i.i, align 8
  %call.i3 = tail call noalias noundef nonnull dereferenceable(120) ptr @_Znwm(i64 noundef 120) #21
  invoke void @_ZN9grpc_core12BatchBuilder5BatchC1EP38grpc_transport_stream_op_batch_payloadP20grpc_stream_refcount(ptr noundef nonnull align 8 dereferenceable(120) %call.i3, ptr noundef nonnull %call.i, ptr noundef %stream_refcount)
          to label %_ZN9grpc_core5Arena9NewPooledINS_12BatchBuilder5BatchEJRP38grpc_transport_stream_op_batch_payloadRP20grpc_stream_refcountEEEPT_DpOT0_.exit unwind label %lpad.i

lpad.i:                                           ; preds = %_ZN9grpc_core10GetContextINS_5ArenaEEEPT_v.exit
  %2 = landingpad { ptr, i32 }
          cleanup
  tail call void @_ZdlPv(ptr noundef nonnull %call.i3) #23
  resume { ptr, i32 } %2

_ZN9grpc_core5Arena9NewPooledINS_12BatchBuilder5BatchEJRP38grpc_transport_stream_op_batch_payloadRP20grpc_stream_refcountEEEPT_DpOT0_.exit: ; preds = %_ZN9grpc_core10GetContextINS_5ArenaEEEPT_v.exit
  %cancel_stream = getelementptr inbounds i8, ptr %call.i3, i64 16
  %bf.load = load i8, ptr %cancel_stream, align 8
  %bf.set = or i8 %bf.load, 64
  store i8 %bf.set, ptr %cancel_stream, align 8
  %cancel_stream5 = getelementptr inbounds i8, ptr %call.i, i64 120
  %3 = load i64, ptr %cancel_stream5, align 8
  %4 = load i64, ptr %status, align 8
  %cmp.not.i4 = icmp eq i64 %4, %3
  br i1 %cmp.not.i4, label %_ZN4absl12lts_202308026StatusaSEOS1_.exit, label %if.then.i5

if.then.i5:                                       ; preds = %_ZN9grpc_core5Arena9NewPooledINS_12BatchBuilder5BatchEJRP38grpc_transport_stream_op_batch_payloadRP20grpc_stream_refcountEEEPT_DpOT0_.exit
  store i64 %4, ptr %cancel_stream5, align 8
  store i64 54, ptr %status, align 8
  %and.i.i.i = and i64 %3, 1
  %cmp.i.i.i = icmp eq i64 %and.i.i.i, 0
  br i1 %cmp.i.i.i, label %_ZN4absl12lts_202308026StatusaSEOS1_.exit, label %if.then.i.i

if.then.i.i:                                      ; preds = %if.then.i5
  tail call void @_ZN4absl12lts_202308026Status15UnrefNonInlinedEm(i64 noundef %3)
  br label %_ZN4absl12lts_202308026StatusaSEOS1_.exit

_ZN4absl12lts_202308026StatusaSEOS1_.exit:        ; preds = %_ZN9grpc_core5Arena9NewPooledINS_12BatchBuilder5BatchEJRP38grpc_transport_stream_op_batch_payloadRP20grpc_stream_refcountEEEPT_DpOT0_.exit, %if.then.i5, %if.then.i.i
  ret ptr %call.i3
}